; Function Attrs: mustprogress nounwind uwtable
define dso_local void @_ZN4base9ListValueD0Ev(ptr noundef nonnull align 8 dereferenceable(40) %this) unnamed_addr #1 align 2 personality ptr @__gxx_personality_v0 {
entry:
  store ptr getelementptr inbounds ({ [19 x ptr] }, ptr @_ZTVN4base9ListValueE, i64 0, i32 0, i64 2), ptr %this, align 8
  %list_.i.i = getelementptr inbounds i8, ptr %this, i64 16
  %0 = load ptr, ptr %list_.i.i, align 8
  %_M_finish.i.i.i.i = getelementptr inbounds i8, ptr %this, i64 24
  %1 = load ptr, ptr %_M_finish.i.i.i.i, align 8
  %tobool.not.i.i.i.i = icmp eq ptr %1, %0
  br i1 %tobool.not.i.i.i.i, label %invoke.cont.i.i, label %for.body.i.i.i.i.i.i.i

for.body.i.i.i.i.i.i.i:                           ; preds = %entry, %_ZSt8_DestroyISt10unique_ptrIN4base5ValueESt14default_deleteIS2_EEEvPT_.exit.i.i.i.i.i.i.i
  %__first.addr.04.i.i.i.i.i.i.i = phi ptr [ %incdec.ptr.i.i.i.i.i.i.i, %_ZSt8_DestroyISt10unique_ptrIN4base5ValueESt14default_deleteIS2_EEEvPT_.exit.i.i.i.i.i.i.i ], [ %0, %entry ]
  %2 = load ptr, ptr %__first.addr.04.i.i.i.i.i.i.i, align 8
  %cmp.not.i.i.i.i.i.i.i.i.i = icmp eq ptr %2, null
  br i1 %cmp.not.i.i.i.i.i.i.i.i.i, label %_ZSt8_DestroyISt10unique_ptrIN4base5ValueESt14default_deleteIS2_EEEvPT_.exit.i.i.i.i.i.i.i, label %_ZNKSt14default_deleteIN4base5ValueEEclEPS1_.exit.i.i.i.i.i.i.i.i.i

_ZNKSt14default_deleteIN4base5ValueEEclEPS1_.exit.i.i.i.i.i.i.i.i.i: ; preds = %for.body.i.i.i.i.i.i.i
  %vtable.i.i.i.i.i.i.i.i.i.i = load ptr, ptr %2, align 8
  %vfn.i.i.i.i.i.i.i.i.i.i = getelementptr inbounds i8, ptr %vtable.i.i.i.i.i.i.i.i.i.i, i64 8
  %3 = load ptr, ptr %vfn.i.i.i.i.i.i.i.i.i.i, align 8
  tail call void %3(ptr noundef nonnull align 8 dereferenceable(12) %2) #26
  br label %_ZSt8_DestroyISt10unique_ptrIN4base5ValueESt14default_deleteIS2_EEEvPT_.exit.i.i.i.i.i.i.i

_ZSt8_DestroyISt10unique_ptrIN4base5ValueESt14default_deleteIS2_EEEvPT_.exit.i.i.i.i.i.i.i: ; preds = %_ZNKSt14default_deleteIN4base5ValueEEclEPS1_.exit.i.i.i.i.i.i.i.i.i, %for.body.i.i.i.i.i.i.i
  store ptr null, ptr %__first.addr.04.i.i.i.i.i.i.i, align 8
  %incdec.ptr.i.i.i.i.i.i.i = getelementptr inbounds i8, ptr %__first.addr.04.i.i.i.i.i.i.i, i64 8
  %cmp.not.i.i.i.i.i.i.i = icmp eq ptr %incdec.ptr.i.i.i.i.i.i.i, %1
  br i1 %cmp.not.i.i.i.i.i.i.i, label %_ZN4base9ListValue5ClearEv.exit.i, label %for.body.i.i.i.i.i.i.i, !llvm.loop !58

_ZN4base9ListValue5ClearEv.exit.i:                ; preds = %_ZSt8_DestroyISt10unique_ptrIN4base5ValueESt14default_deleteIS2_EEEvPT_.exit.i.i.i.i.i.i.i
  store ptr %0, ptr %_M_finish.i.i.i.i, align 8
  %.pre.i = load ptr, ptr %list_.i.i, align 8
  %cmp.not3.i.i.i.i.i = icmp eq ptr %.pre.i, %0
  br i1 %cmp.not3.i.i.i.i.i, label %invoke.cont.i.i, label %for.body.i.i.i.i.i

for.body.i.i.i.i.i:                               ; preds = %_ZN4base9ListValue5ClearEv.exit.i, %_ZSt8_DestroyISt10unique_ptrIN4base5ValueESt14default_deleteIS2_EEEvPT_.exit.i.i.i.i.i
  %__first.addr.04.i.i.i.i.i = phi ptr [ %incdec.ptr.i.i.i.i.i, %_ZSt8_DestroyISt10unique_ptrIN4base5ValueESt14default_deleteIS2_EEEvPT_.exit.i.i.i.i.i ], [ %.pre.i, %_ZN4base9ListValue5ClearEv.exit.i ]
  %4 = load ptr, ptr %__first.addr.04.i.i.i.i.i, align 8
  %cmp.not.i.i.i.i.i.i1.i = icmp eq ptr %4, null
  br i1 %cmp.not.i.i.i.i.i.i1.i, label %_ZSt8_DestroyISt10unique_ptrIN4base5ValueESt14default_deleteIS2_EEEvPT_.exit.i.i.i.i.i, label %_ZNKSt14default_deleteIN4base5ValueEEclEPS1_.exit.i.i.i.i.i.i.i

_ZNKSt14default_deleteIN4base5ValueEEclEPS1_.exit.i.i.i.i.i.i.i: ; preds = %for.body.i.i.i.i.i
  %vtable.i.i.i.i.i.i.i.i = load ptr, ptr %4, align 8
  %vfn.i.i.i.i.i.i.i.i = getelementptr inbounds i8, ptr %vtable.i.i.i.i.i.i.i.i, i64 8
  %5 = load ptr, ptr %vfn.i.i.i.i.i.i.i.i, align 8
  tail call void %5(ptr noundef nonnull align 8 dereferenceable(12) %4) #26
  br label %_ZSt8_DestroyISt10unique_ptrIN4base5ValueESt14default_deleteIS2_EEEvPT_.exit.i.i.i.i.i

_ZSt8_DestroyISt10unique_ptrIN4base5ValueESt14default_deleteIS2_EEEvPT_.exit.i.i.i.i.i: ; preds = %_ZNKSt14default_deleteIN4base5ValueEEclEPS1_.exit.i.i.i.i.i.i.i, %for.body.i.i.i.i.i
  store ptr null, ptr %__first.addr.04.i.i.i.i.i, align 8
  %incdec.ptr.i.i.i.i.i = getelementptr inbounds i8, ptr %__first.addr.04.i.i.i.i.i, i64 8
  %cmp.not.i.i.i.i.i = icmp eq ptr %incdec.ptr.i.i.i.i.i, %0
  br i1 %cmp.not.i.i.i.i.i, label %invoke.contthread-pre-split.i.i, label %for.body.i.i.i.i.i, !llvm.loop !58

invoke.contthread-pre-split.i.i:                  ; preds = %_ZSt8_DestroyISt10unique_ptrIN4base5ValueESt14default_deleteIS2_EEEvPT_.exit.i.i.i.i.i
  %.pr.i.i = load ptr, ptr %list_.i.i, align 8
  br label %invoke.cont.i.i

invoke.cont.i.i:                                  ; preds = %invoke.contthread-pre-split.i.i, %_ZN4base9ListValue5ClearEv.exit.i, %entry
  %6 = phi ptr [ %.pr.i.i, %invoke.contthread-pre-split.i.i ], [ %0, %_ZN4base9ListValue5ClearEv.exit.i ], [ %0, %entry ]
  %tobool.not.i.i.i2.i = icmp eq ptr %6, null
  br i1 %tobool.not.i.i.i2.i, label %_ZN4base9ListValueD2Ev.exit, label %if.then.i.i.i.i

if.then.i.i.i.i:                                  ; preds = %invoke.cont.i.i
  tail call void @_ZdlPv(ptr noundef nonnull %6) #24
  br label %_ZN4base9ListValueD2Ev.exit

_ZN4base9ListValueD2Ev.exit:                      ; preds = %invoke.cont.i.i, %if.then.i.i.i.i
  tail call void @_ZdlPv(ptr noundef nonnull %this) #24
  ret void
}